; Function Attrs: uwtable
define noundef i32 @_ZTv0_n272_N15colvarbias_meta23write_state_to_replicasEv(ptr noundef %0) unnamed_addr #3 align 2 {
  %2 = load ptr, ptr %0, align 8
  %3 = getelementptr inbounds i8, ptr %2, i64 -272
  %4 = load i64, ptr %3, align 8
  %5 = getelementptr inbounds i8, ptr %0, i64 %4
  %6 = getelementptr inbounds i8, ptr %5, i64 8
  %7 = load i32, ptr %6, align 8
  %.not.i = icmp eq i32 %7, 0
  br i1 %.not.i, label %_ZN15colvarbias_meta23write_state_to_replicasEv.exit, label %8

8:                                                ; preds = %1
  %9 = load ptr, ptr %5, align 8
  %10 = getelementptr inbounds i8, ptr %9, i64 232
  %11 = load ptr, ptr %10, align 8
  %12 = tail call noundef i32 %11(ptr noundef nonnull align 8 dereferenceable(880) %5)
  %13 = load ptr, ptr %5, align 8
  %14 = getelementptr inbounds i8, ptr %13, i64 240
  %15 = load ptr, ptr %14, align 8
  %16 = tail call noundef i32 %15(ptr noundef nonnull align 8 dereferenceable(880) %5)
  %17 = or i32 %16, %12
  %18 = getelementptr inbounds i8, ptr %5, i64 280
  %19 = getelementptr inbounds i8, ptr %5, i64 288
  %20 = load ptr, ptr %19, align 8
  %21 = load ptr, ptr %18, align 8
  %.not8.i = icmp eq ptr %20, %21
  br i1 %.not8.i, label %_ZN15colvarbias_meta23write_state_to_replicasEv.exit, label %.lr.ph.i

.lr.ph.i:                                         ; preds = %8, %.lr.ph.i
  %22 = phi ptr [ %28, %.lr.ph.i ], [ %21, %8 ]
  %.07.i = phi i64 [ %26, %.lr.ph.i ], [ 0, %8 ]
  %23 = getelementptr inbounds ptr, ptr %22, i64 %.07.i
  %24 = load ptr, ptr %23, align 8
  %25 = getelementptr inbounds i8, ptr %24, i64 440
  store i8 0, ptr %25, align 8
  %26 = add nuw i64 %.07.i, 1
  %27 = load ptr, ptr %19, align 8
  %28 = load ptr, ptr %18, align 8
  %29 = ptrtoint ptr %27 to i64
  %30 = ptrtoint ptr %28 to i64
  %31 = sub i64 %29, %30
  %32 = ashr exact i64 %31, 3
  %33 = icmp ult i64 %26, %32
  br i1 %33, label %.lr.ph.i, label %_ZN15colvarbias_meta23write_state_to_replicasEv.exit, !llvm.loop !115

_ZN15colvarbias_meta23write_state_to_replicasEv.exit: ; preds = %.lr.ph.i, %1, %8
  %.06.i = phi i32 [ 0, %1 ], [ %17, %8 ], [ %17, %.lr.ph.i ]
  ret i32 %.06.i
}